target datalayout = "e-m:e-p270:32:32-p271:32:32-p272:64:64-i64:64-i128:128-f80:128-n8:16:32:64-S128"
target triple = "x86_64-pc-linux-gnu"

%struct.option = type { i32, i32, ptr, ptr, ptr, ptr, i32, ptr, i64, ptr, i64, ptr }

@the_repository = external global ptr, align 8
@reflog_exists_usage = internal constant [2 x ptr] [ptr @.str.42, ptr null], align 16
@.str.41 = private unnamed_addr constant [23 x i8] c"invalid ref format: %s\00", align 1

; Function Attrs: nounwind uwtable
define internal i32 @cmd_reflog_exists(i32 noundef %0, ptr noundef %1, ptr noundef %2, ptr noundef %3) #0 {
  %5 = alloca i32, align 4
  %6 = alloca ptr, align 8
  %7 = alloca ptr, align 8
  %8 = alloca ptr, align 8
  %9 = alloca [1 x %struct.option], align 16
  %10 = alloca ptr, align 8
  store i32 %0, ptr %5, align 4, !tbaa !4
  store ptr %1, ptr %6, align 8, !tbaa !8
  store ptr %2, ptr %7, align 8, !tbaa !11
  store ptr %3, ptr %8, align 8, !tbaa !13
  call void @llvm.lifetime.start.p0(i64 88, ptr %9) #9
  call void @llvm.memset.p0.i64(ptr align 16 %9, i8 0, i64 88, i1 false)
  call void @llvm.lifetime.start.p0(i64 8, ptr %10) #9
  %11 = load i32, ptr %5, align 4, !tbaa !4
  %12 = load ptr, ptr %6, align 8, !tbaa !8
  %13 = load ptr, ptr %7, align 8, !tbaa !11
  %14 = getelementptr inbounds [1 x %struct.option], ptr %9, i64 0, i64 0
  %15 = call i32 @parse_options(i32 noundef %11, ptr noundef %12, ptr noundef %13, ptr noundef %14, ptr noundef @reflog_exists_usage, i32 noundef 0)
  store i32 %15, ptr %5, align 4, !tbaa !4
  %16 = load i32, ptr %5, align 4, !tbaa !4
  %17 = icmp ne i32 %16, 0
  br i1 %17, label %20, label %18

18:                                               ; preds = %4
  %19 = getelementptr inbounds [1 x %struct.option], ptr %9, i64 0, i64 0
  call void @usage_with_options(ptr noundef @reflog_exists_usage, ptr noundef %19) #11
  unreachable

20:                                               ; preds = %4
  %21 = load ptr, ptr %6, align 8, !tbaa !8
  %22 = getelementptr inbounds ptr, ptr %21, i64 0
  %23 = load ptr, ptr %22, align 8, !tbaa !11
  store ptr %23, ptr %10, align 8, !tbaa !11
  %24 = load ptr, ptr %10, align 8, !tbaa !11
  %25 = call i32 @check_refname_format(ptr noundef %24, i32 noundef 1)
  %26 = icmp ne i32 %25, 0
  br i1 %26, label %27, label %30

27:                                               ; preds = %20
  %28 = call ptr @_(ptr noundef @.str.41)
  %29 = load ptr, ptr %10, align 8, !tbaa !11
  call void (ptr, ...) @die(ptr noundef %28, ptr noundef %29) #11
  unreachable

30:                                               ; preds = %20
  %31 = load ptr, ptr @the_repository, align 8, !tbaa !13
  %32 = call ptr @get_main_ref_store(ptr noundef %31)
  %33 = load ptr, ptr %10, align 8, !tbaa !11
  %34 = call i32 @refs_reflog_exists(ptr noundef %32, ptr noundef %33)
  %35 = icmp ne i32 %34, 0
  %36 = xor i1 %35, true
  %37 = zext i1 %36 to i32
  call void @llvm.lifetime.end.p0(i64 8, ptr %10) #9
  call void @llvm.lifetime.end.p0(i64 88, ptr %9) #9
  ret i32 %37
}