; Function Attrs: nounwind uwtable
define internal range(i32 0, 2) i32 @cmd_reflog_exists(i32 noundef %0, ptr noundef %1, ptr noundef %2, ptr readnone captures(none) %3) #0 {
  %5 = alloca [1 x %struct.option], align 16
  call void @llvm.lifetime.start.p0(i64 88, ptr nonnull %5) #13
  call void @llvm.memset.p0.i64(ptr noundef nonnull align 16 dereferenceable(88) %5, i8 0, i64 88, i1 false)
  %6 = call i32 @parse_options(i32 noundef %0, ptr noundef %1, ptr noundef %2, ptr noundef nonnull %5, ptr noundef nonnull @reflog_exists_usage, i32 noundef 0) #13
  %.not = icmp eq i32 %6, 0
  br i1 %.not, label %7, label %8

7:                                                ; preds = %4
  call void @usage_with_options(ptr noundef nonnull @reflog_exists_usage, ptr noundef nonnull %5) #15
  unreachable

8:                                                ; preds = %4
  %9 = load ptr, ptr %1, align 8, !tbaa !20
  %10 = call i32 @check_refname_format(ptr noundef %9, i32 noundef 1) #13
  %.not7 = icmp eq i32 %10, 0
  br i1 %.not7, label %13, label %11

11:                                               ; preds = %8
  %12 = call fastcc ptr @_(ptr noundef nonnull @.str.41)
  call void (ptr, ...) @die(ptr noundef %12, ptr noundef %9) #15
  unreachable

13:                                               ; preds = %8
  %14 = load ptr, ptr @the_repository, align 8, !tbaa !17
  %15 = call ptr @get_main_ref_store(ptr noundef %14) #13
  %16 = call i32 @refs_reflog_exists(ptr noundef %15, ptr noundef %9) #13
  %.not8 = icmp eq i32 %16, 0
  %17 = zext i1 %.not8 to i32
  call void @llvm.lifetime.end.p0(i64 88, ptr nonnull %5) #13
  ret i32 %17
}